; Function Attrs: null_pointer_is_valid sspstrong uwtable
define internal noundef i32 @dissect_nfs2_setattr_call(ptr noundef %0, ptr noundef %1, ptr noundef %2, ptr noundef readonly captures(none) %3) #0 {
  %5 = alloca i32, align 4
  call void @llvm.lifetime.start.p0(i64 4, ptr nonnull %5) #22
  %6 = call i32 @dissect_fhandle(ptr noundef %0, i32 noundef 0, ptr noundef %1, ptr noundef %2, ptr noundef nonnull @.str.2244, ptr noundef nonnull %5, ptr noundef %3)
  %7 = call fastcc i32 @dissect_nfs2_sattr(ptr noundef %0, i32 noundef %6, ptr noundef %2)
  %8 = getelementptr inbounds nuw i8, ptr %1, i64 8
  %9 = load ptr, ptr %8, align 8
  %10 = load i32, ptr %5, align 4
  call void (ptr, i32, ptr, ...) @col_append_fstr(ptr noundef %9, i32 noundef 25, ptr noundef nonnull @.str.2238, i32 noundef %10)
  %11 = load i32, ptr %5, align 4
  call void (ptr, ptr, ...) @proto_item_append_text(ptr noundef %2, ptr noundef nonnull @.str.2245, i32 noundef %11)
  call void @llvm.lifetime.end.p0(i64 4, ptr nonnull %5) #22
  ret i32 %7
}